target datalayout = "e-m:e-p270:32:32-p271:32:32-p272:64:64-i64:64-i128:128-f80:128-n8:16:32:64-S128"
target triple = "x86_64-pc-linux-gnu"

%struct.Mio_Cell2_t_ = type { ptr, ptr, i32, float, i64, i64, i32, [6 x i32], ptr }
%struct.Vec_Int_t_ = type { i32, i32, ptr }

@.str.1 = private unnamed_addr constant [27 x i8] c"%3d : %8s   Fanins = %d   \00", align 1
@.str.2 = private unnamed_addr constant [7 x i8] c"%d : {\00", align 1
@.str.3 = private unnamed_addr constant [5 x i8] c" %d \00", align 1
@.str.4 = private unnamed_addr constant [16 x i8] c"}  Index = %d  \00", align 1
@.str.5 = private unnamed_addr constant [15 x i8] c"Gain = %6.2f  \00", align 1

; Function Attrs: inlinehint nounwind uwtable
define internal float @Scl_Int2Flt(i32 noundef %0) #2 {
  %2 = alloca i32, align 4
  store i32 %0, ptr %2, align 4, !tbaa !8
  %3 = load i32, ptr %2, align 4, !tbaa !8
  %4 = sitofp i32 %3 to float
  %5 = fdiv float %4, 1.000000e+03
  ret float %5
}

; Function Attrs: inlinehint nounwind uwtable
define internal i32 @Vec_IntEntry(ptr noundef %0, i32 noundef %1) #2 {
  %3 = alloca ptr, align 8
  %4 = alloca i32, align 4
  store ptr %0, ptr %3, align 8, !tbaa !10
  store i32 %1, ptr %4, align 4, !tbaa !8
  %5 = load ptr, ptr %3, align 8, !tbaa !10
  %6 = getelementptr inbounds nuw %struct.Vec_Int_t_, ptr %5, i32 0, i32 2
  %7 = load ptr, ptr %6, align 8, !tbaa !35
  %8 = load i32, ptr %4, align 4, !tbaa !8
  %9 = sext i32 %8 to i64
  %10 = getelementptr inbounds i32, ptr %7, i64 %9
  %11 = load i32, ptr %10, align 4, !tbaa !8
  ret i32 %11
}

; Function Attrs: nounwind uwtable
define i32 @Abc_NtkPrecomputePrint(ptr noundef %0, i32 noundef %1, ptr noundef %2) #0 {
  %4 = alloca ptr, align 8
  %5 = alloca i32, align 4
  %6 = alloca ptr, align 8
  %7 = alloca i32, align 4
  %8 = alloca i32, align 4
  %9 = alloca i32, align 4
  %10 = alloca i32, align 4
  %11 = alloca i32, align 4
  %12 = alloca i32, align 4
  %13 = alloca i32, align 4
  %14 = alloca i32, align 4
  %15 = alloca i32, align 4
  %16 = alloca i32, align 4
  store ptr %0, ptr %4, align 8, !tbaa !3
  store i32 %1, ptr %5, align 4, !tbaa !8
  store ptr %2, ptr %6, align 8, !tbaa !10
  call void @llvm.lifetime.start.p0(i64 4, ptr %7) #10
  call void @llvm.lifetime.start.p0(i64 4, ptr %8) #10
  call void @llvm.lifetime.start.p0(i64 4, ptr %9) #10
  call void @llvm.lifetime.start.p0(i64 4, ptr %10) #10
  store i32 0, ptr %10, align 4, !tbaa !8
  call void @llvm.lifetime.start.p0(i64 4, ptr %11) #10
  store i32 0, ptr %11, align 4, !tbaa !8
  store i32 2, ptr %7, align 4, !tbaa !8
  br label %17

17:                                               ; preds = %111, %3
  %18 = load i32, ptr %7, align 4, !tbaa !8
  %19 = load i32, ptr %5, align 4, !tbaa !8
  %20 = icmp slt i32 %18, %19
  br i1 %20, label %21, label %114

21:                                               ; preds = %17
  call void @llvm.lifetime.start.p0(i64 4, ptr %12) #10
  %22 = load ptr, ptr %4, align 8, !tbaa !3
  %23 = load i32, ptr %7, align 4, !tbaa !8
  %24 = sext i32 %23 to i64
  %25 = getelementptr inbounds %struct.Mio_Cell2_t_, ptr %22, i64 %24
  %26 = getelementptr inbounds nuw %struct.Mio_Cell2_t_, ptr %25, i32 0, i32 2
  %27 = load i32, ptr %26, align 8
  %28 = lshr i32 %27, 28
  store i32 %28, ptr %12, align 4, !tbaa !8
  %29 = load i32, ptr %7, align 4, !tbaa !8
  %30 = load ptr, ptr %4, align 8, !tbaa !3
  %31 = load i32, ptr %7, align 4, !tbaa !8
  %32 = sext i32 %31 to i64
  %33 = getelementptr inbounds %struct.Mio_Cell2_t_, ptr %30, i64 %32
  %34 = getelementptr inbounds nuw %struct.Mio_Cell2_t_, ptr %33, i32 0, i32 0
  %35 = load ptr, ptr %34, align 8, !tbaa !31
  %36 = load i32, ptr %12, align 4, !tbaa !8
  %37 = call i32 (ptr, ...) @printf(ptr noundef @.str.1, i32 noundef %29, ptr noundef %35, i32 noundef %36)
  %38 = load ptr, ptr %4, align 8, !tbaa !3
  %39 = load i32, ptr %7, align 4, !tbaa !8
  %40 = sext i32 %39 to i64
  %41 = getelementptr inbounds %struct.Mio_Cell2_t_, ptr %38, i64 %40
  %42 = getelementptr inbounds nuw %struct.Mio_Cell2_t_, ptr %41, i32 0, i32 5
  %43 = load i32, ptr %12, align 4, !tbaa !8
  call void @Dau_DsdPrintFromTruth(ptr noundef %42, i32 noundef %43)
  store i32 0, ptr %8, align 4, !tbaa !8
  br label %44

44:                                               ; preds = %105, %21
  %45 = load i32, ptr %8, align 4, !tbaa !8
  %46 = load i32, ptr %12, align 4, !tbaa !8
  %47 = icmp sle i32 %45, %46
  br i1 %47, label %48, label %110

48:                                               ; preds = %44
  call void @llvm.lifetime.start.p0(i64 4, ptr %13) #10
  %49 = load ptr, ptr %6, align 8, !tbaa !10
  %50 = load i32, ptr %10, align 4, !tbaa !8
  %51 = add nsw i32 %50, 0
  %52 = call i32 @Vec_IntEntry(ptr noundef %49, i32 noundef %51)
  store i32 %52, ptr %13, align 4, !tbaa !8
  call void @llvm.lifetime.start.p0(i64 4, ptr %14) #10
  %53 = load ptr, ptr %6, align 8, !tbaa !10
  %54 = load i32, ptr %10, align 4, !tbaa !8
  %55 = add nsw i32 %54, 1
  %56 = call i32 @Vec_IntEntry(ptr noundef %53, i32 noundef %55)
  store i32 %56, ptr %14, align 4, !tbaa !8
  call void @llvm.lifetime.start.p0(i64 4, ptr %15) #10
  %57 = load ptr, ptr %6, align 8, !tbaa !10
  %58 = load i32, ptr %10, align 4, !tbaa !8
  %59 = add nsw i32 %58, 2
  %60 = call i32 @Vec_IntEntry(ptr noundef %57, i32 noundef %59)
  store i32 %60, ptr %15, align 4, !tbaa !8
  %61 = load i32, ptr %13, align 4, !tbaa !8
  %62 = icmp eq i32 %61, -1
  br i1 %62, label %63, label %64

63:                                               ; preds = %48
  store i32 7, ptr %16, align 4
  br label %102

64:                                               ; preds = %48
  %65 = load i32, ptr %8, align 4, !tbaa !8
  %66 = call i32 (ptr, ...) @printf(ptr noundef @.str.2, i32 noundef %65)
  store i32 0, ptr %9, align 4, !tbaa !8
  br label %67

67:                                               ; preds = %78, %64
  %68 = load i32, ptr %9, align 4, !tbaa !8
  %69 = load i32, ptr %12, align 4, !tbaa !8
  %70 = icmp slt i32 %68, %69
  br i1 %70, label %71, label %81

71:                                               ; preds = %67
  %72 = load i32, ptr %14, align 4, !tbaa !8
  %73 = load i32, ptr %9, align 4, !tbaa !8
  %74 = shl i32 %73, 2
  %75 = ashr i32 %72, %74
  %76 = and i32 %75, 15
  %77 = call i32 (ptr, ...) @printf(ptr noundef @.str.3, i32 noundef %76)
  br label %78

78:                                               ; preds = %71
  %79 = load i32, ptr %9, align 4, !tbaa !8
  %80 = add nsw i32 %79, 1
  store i32 %80, ptr %9, align 4, !tbaa !8
  br label %67, !llvm.loop !37

81:                                               ; preds = %67
  %82 = load i32, ptr %10, align 4, !tbaa !8
  %83 = call i32 (ptr, ...) @printf(ptr noundef @.str.4, i32 noundef %82)
  %84 = load i32, ptr %15, align 4, !tbaa !8
  %85 = call float @Scl_Int2Flt(i32 noundef %84)
  %86 = fpext float %85 to double
  %87 = call i32 (ptr, ...) @printf(ptr noundef @.str.5, double noundef %86)
  %88 = load ptr, ptr %4, align 8, !tbaa !3
  %89 = load i32, ptr %13, align 4, !tbaa !8
  %90 = sext i32 %89 to i64
  %91 = getelementptr inbounds %struct.Mio_Cell2_t_, ptr %88, i64 %90
  %92 = getelementptr inbounds nuw %struct.Mio_Cell2_t_, ptr %91, i32 0, i32 5
  %93 = load ptr, ptr %4, align 8, !tbaa !3
  %94 = load i32, ptr %13, align 4, !tbaa !8
  %95 = sext i32 %94 to i64
  %96 = getelementptr inbounds %struct.Mio_Cell2_t_, ptr %93, i64 %95
  %97 = getelementptr inbounds nuw %struct.Mio_Cell2_t_, ptr %96, i32 0, i32 2
  %98 = load i32, ptr %97, align 8
  %99 = lshr i32 %98, 28
  call void @Dau_DsdPrintFromTruth(ptr noundef %92, i32 noundef %99)
  %100 = load i32, ptr %11, align 4, !tbaa !8
  %101 = add nsw i32 %100, 1
  store i32 %101, ptr %11, align 4, !tbaa !8
  store i32 0, ptr %16, align 4
  br label %102

102:                                              ; preds = %81, %63
  call void @llvm.lifetime.end.p0(i64 4, ptr %15) #10
  call void @llvm.lifetime.end.p0(i64 4, ptr %14) #10
  call void @llvm.lifetime.end.p0(i64 4, ptr %13) #10
  %103 = load i32, ptr %16, align 4
  switch i32 %103, label %116 [
    i32 0, label %104
    i32 7, label %105
  ]

104:                                              ; preds = %102
  br label %105

105:                                              ; preds = %104, %102
  %106 = load i32, ptr %8, align 4, !tbaa !8
  %107 = add nsw i32 %106, 1
  store i32 %107, ptr %8, align 4, !tbaa !8
  %108 = load i32, ptr %10, align 4, !tbaa !8
  %109 = add nsw i32 %108, 3
  store i32 %109, ptr %10, align 4, !tbaa !8
  br label %44, !llvm.loop !38

110:                                              ; preds = %44
  call void @llvm.lifetime.end.p0(i64 4, ptr %12) #10
  br label %111

111:                                              ; preds = %110
  %112 = load i32, ptr %7, align 4, !tbaa !8
  %113 = add nsw i32 %112, 1
  store i32 %113, ptr %7, align 4, !tbaa !8
  br label %17, !llvm.loop !39

114:                                              ; preds = %17
  %115 = load i32, ptr %11, align 4, !tbaa !8
  store i32 1, ptr %16, align 4
  call void @llvm.lifetime.end.p0(i64 4, ptr %11) #10
  call void @llvm.lifetime.end.p0(i64 4, ptr %10) #10
  call void @llvm.lifetime.end.p0(i64 4, ptr %9) #10
  call void @llvm.lifetime.end.p0(i64 4, ptr %8) #10
  call void @llvm.lifetime.end.p0(i64 4, ptr %7) #10
  ret i32 %115

116:                                              ; preds = %102
  unreachable
}