; Function Attrs: nounwind uwtable
define i32 @Abc_NtkPrecomputePrint(ptr noundef %0, i32 noundef %1, ptr noundef readonly captures(none) %2) local_unnamed_addr #0 {
  %4 = icmp sgt i32 %1, 2
  br i1 %4, label %.lr.ph, label %._crit_edge

.lr.ph:                                           ; preds = %3
  %5 = getelementptr i8, ptr %2, i64 8
  %wide.trip.count = zext nneg i32 %1 to i64
  br label %6

6:                                                ; preds = %.lr.ph, %.split50.us
  %indvars.iv64 = phi i64 [ 2, %.lr.ph ], [ %indvars.iv.next65, %.split50.us ]
  %.03853 = phi i64 [ 0, %.lr.ph ], [ %.us-phi51.in, %.split50.us ]
  %.03952 = phi i32 [ 0, %.lr.ph ], [ %.us-phi, %.split50.us ]
  %7 = getelementptr inbounds nuw %struct.Mio_Cell2_t_, ptr %0, i64 %indvars.iv64
  %8 = getelementptr inbounds nuw i8, ptr %7, i64 16
  %9 = load i32, ptr %8, align 8
  %.fr55 = freeze i32 %9
  %10 = lshr i32 %.fr55, 28
  %11 = load ptr, ptr %7, align 8, !tbaa !32
  %12 = trunc nuw nsw i64 %indvars.iv64 to i32
  %13 = tail call i32 (ptr, ...) @printf(ptr noundef nonnull dereferenceable(1) @.str.1, i32 noundef %12, ptr noundef %11, i32 noundef %10)
  %14 = getelementptr inbounds nuw i8, ptr %7, i64 32
  tail call void @Dau_DsdPrintFromTruth(ptr noundef nonnull %14, i32 noundef %10) #13
  %15 = icmp ugt i32 %.fr55, 268435455
  %sext = shl i64 %.03853, 32
  %16 = ashr exact i64 %sext, 32
  br i1 %15, label %.split.us, label %.split

.split.us:                                        ; preds = %6, %31
  %indvars.iv60 = phi i64 [ %indvars.iv.next61, %31 ], [ %16, %6 ]
  %.03648.us = phi i32 [ %32, %31 ], [ 0, %6 ]
  %.14046.us = phi i32 [ %.2.us, %31 ], [ %.03952, %6 ]
  %.val.us = load ptr, ptr %5, align 8, !tbaa !11
  %17 = getelementptr i32, ptr %.val.us, i64 %indvars.iv60
  %18 = load i32, ptr %17, align 4, !tbaa !15
  %19 = getelementptr i8, ptr %17, i64 4
  %20 = load i32, ptr %19, align 4, !tbaa !15
  %21 = getelementptr i8, ptr %17, i64 8
  %22 = load i32, ptr %21, align 4, !tbaa !15
  %23 = icmp eq i32 %18, -1
  br i1 %23, label %31, label %.lr.ph.us

.lr.ph.us:                                        ; preds = %.split.us
  %24 = tail call i32 (ptr, ...) @printf(ptr noundef nonnull dereferenceable(1) @.str.2, i32 noundef %.03648.us)
  br label %25

25:                                               ; preds = %.lr.ph.us, %25
  %.03745.us = phi i32 [ 0, %.lr.ph.us ], [ %30, %25 ]
  %26 = shl i32 %.03745.us, 2
  %27 = ashr i32 %20, %26
  %28 = and i32 %27, 15
  %29 = tail call i32 (ptr, ...) @printf(ptr noundef nonnull dereferenceable(1) @.str.3, i32 noundef %28)
  %30 = add nuw nsw i32 %.03745.us, 1
  %exitcond59.not = icmp eq i32 %30, %10
  br i1 %exitcond59.not, label %._crit_edge.us, label %25, !llvm.loop !34

31:                                               ; preds = %._crit_edge.us, %.split.us
  %.2.us = phi i32 [ %45, %._crit_edge.us ], [ %.14046.us, %.split.us ]
  %32 = add nuw nsw i32 %.03648.us, 1
  %indvars.iv.next61 = add nsw i64 %indvars.iv60, 3
  %exitcond63.not = icmp eq i32 %.03648.us, %10
  br i1 %exitcond63.not, label %.split50.us, label %.split.us, !llvm.loop !35

._crit_edge.us:                                   ; preds = %25
  %33 = trunc nsw i64 %indvars.iv60 to i32
  %34 = tail call i32 (ptr, ...) @printf(ptr noundef nonnull dereferenceable(1) @.str.4, i32 noundef %33)
  %35 = sitofp i32 %22 to float
  %36 = fdiv float %35, 1.000000e+03
  %37 = fpext float %36 to double
  %38 = tail call i32 (ptr, ...) @printf(ptr noundef nonnull dereferenceable(1) @.str.5, double noundef %37)
  %39 = sext i32 %18 to i64
  %40 = getelementptr inbounds %struct.Mio_Cell2_t_, ptr %0, i64 %39
  %41 = getelementptr inbounds nuw i8, ptr %40, i64 32
  %42 = getelementptr inbounds nuw i8, ptr %40, i64 16
  %43 = load i32, ptr %42, align 8
  %44 = lshr i32 %43, 28
  tail call void @Dau_DsdPrintFromTruth(ptr noundef nonnull %41, i32 noundef %44) #13
  %45 = add nsw i32 %.14046.us, 1
  br label %31

.split:                                           ; preds = %6
  %.val = load ptr, ptr %5, align 8, !tbaa !11
  %46 = getelementptr i32, ptr %.val, i64 %16
  %47 = load i32, ptr %46, align 4, !tbaa !15
  %48 = icmp eq i32 %47, -1
  br i1 %48, label %.split50.us.loopexit69, label %49

49:                                               ; preds = %.split
  %50 = getelementptr i8, ptr %46, i64 8
  %51 = load i32, ptr %50, align 4, !tbaa !15
  %52 = tail call i32 (ptr, ...) @printf(ptr noundef nonnull dereferenceable(1) @.str.2, i32 noundef 0)
  %53 = trunc i64 %.03853 to i32
  %54 = tail call i32 (ptr, ...) @printf(ptr noundef nonnull dereferenceable(1) @.str.4, i32 noundef %53)
  %55 = sitofp i32 %51 to float
  %56 = fdiv float %55, 1.000000e+03
  %57 = fpext float %56 to double
  %58 = tail call i32 (ptr, ...) @printf(ptr noundef nonnull dereferenceable(1) @.str.5, double noundef %57)
  %59 = sext i32 %47 to i64
  %60 = getelementptr inbounds %struct.Mio_Cell2_t_, ptr %0, i64 %59
  %61 = getelementptr inbounds nuw i8, ptr %60, i64 32
  %62 = getelementptr inbounds nuw i8, ptr %60, i64 16
  %63 = load i32, ptr %62, align 8
  %64 = lshr i32 %63, 28
  tail call void @Dau_DsdPrintFromTruth(ptr noundef nonnull %61, i32 noundef %64) #13
  %65 = add nsw i32 %.03952, 1
  br label %.split50.us.loopexit69

.split50.us.loopexit69:                           ; preds = %49, %.split
  %.2 = phi i32 [ %65, %49 ], [ %.03952, %.split ]
  %indvars.iv.next = add nsw i64 %16, 3
  br label %.split50.us

.split50.us:                                      ; preds = %31, %.split50.us.loopexit69
  %.us-phi = phi i32 [ %.2, %.split50.us.loopexit69 ], [ %.2.us, %31 ]
  %.us-phi51.in = phi i64 [ %indvars.iv.next, %.split50.us.loopexit69 ], [ %indvars.iv.next61, %31 ]
  %indvars.iv.next65 = add nuw nsw i64 %indvars.iv64, 1
  %exitcond67.not = icmp eq i64 %indvars.iv.next65, %wide.trip.count
  br i1 %exitcond67.not, label %._crit_edge, label %6, !llvm.loop !36

._crit_edge:                                      ; preds = %.split50.us, %3
  %.039.lcssa = phi i32 [ 0, %3 ], [ %.us-phi, %.split50.us ]
  ret i32 %.039.lcssa
}